target datalayout = "e-m:e-p270:32:32-p271:32:32-p272:64:64-i64:64-i128:128-f80:128-n8:16:32:64-S128"
target triple = "x86_64-pc-linux-gnu"

%struct.rb_data_type_struct = type { ptr, %struct.anon, ptr, ptr, i64 }
%struct.anon = type { ptr, ptr, ptr, ptr, [1 x ptr] }
%struct.JSON_Generator_StateStruct = type { i64, i64, i64, i64, i64, i64, i64, i64, i64, i8, i8, i8, i8 }
%struct.FBufferStruct = type { i32, i64, i64, i64, ptr, i64 }
%struct.generate_json_data = type { ptr, i64, ptr, i64, ptr }

@JSON_Generator_State_type = internal constant %struct.rb_data_type_struct { ptr @.str.74, %struct.anon { ptr @State_mark, ptr @State_free, ptr @State_memsize, ptr @State_compact, [1 x ptr] zeroinitializer }, ptr null, ptr null, i64 289 }, align 8

; Function Attrs: nounwind sspstrong uwtable
define internal void @fbuffer_clear(ptr noundef %0) #0 {
  %2 = alloca ptr, align 8
  store ptr %0, ptr %2, align 8, !tbaa !57
  %3 = load ptr, ptr %2, align 8, !tbaa !57
  %4 = getelementptr inbounds nuw %struct.FBufferStruct, ptr %3, i32 0, i32 2
  store i64 0, ptr %4, align 8, !tbaa !65
  ret void
}

; Function Attrs: nounwind sspstrong uwtable
define internal void @fbuffer_free(ptr noundef %0) #0 {
  %2 = alloca ptr, align 8
  store ptr %0, ptr %2, align 8, !tbaa !57
  %3 = load ptr, ptr %2, align 8, !tbaa !57
  %4 = getelementptr inbounds nuw %struct.FBufferStruct, ptr %3, i32 0, i32 4
  %5 = load ptr, ptr %4, align 8, !tbaa !63
  %6 = icmp ne ptr %5, null
  br i1 %6, label %7, label %16

7:                                                ; preds = %1
  %8 = load ptr, ptr %2, align 8, !tbaa !57
  %9 = getelementptr inbounds nuw %struct.FBufferStruct, ptr %8, i32 0, i32 0
  %10 = load i32, ptr %9, align 8, !tbaa !62
  %11 = icmp eq i32 %10, 0
  br i1 %11, label %12, label %16

12:                                               ; preds = %7
  %13 = load ptr, ptr %2, align 8, !tbaa !57
  %14 = getelementptr inbounds nuw %struct.FBufferStruct, ptr %13, i32 0, i32 4
  %15 = load ptr, ptr %14, align 8, !tbaa !63
  call void @ruby_xfree(ptr noundef %15)
  br label %16

16:                                               ; preds = %12, %7, %1
  ret void
}

; Function Attrs: nounwind sspstrong uwtable
define internal void @fbuffer_flush(ptr noundef %0) #0 {
  %2 = alloca ptr, align 8
  store ptr %0, ptr %2, align 8, !tbaa !57
  %3 = load ptr, ptr %2, align 8, !tbaa !57
  %4 = getelementptr inbounds nuw %struct.FBufferStruct, ptr %3, i32 0, i32 5
  %5 = load i64, ptr %4, align 8, !tbaa !34
  br i1 false, label %6, label %11

6:                                                ; preds = %1
  %7 = load ptr, ptr %2, align 8, !tbaa !57
  %8 = getelementptr inbounds nuw %struct.FBufferStruct, ptr %7, i32 0, i32 2
  %9 = load i64, ptr %8, align 8, !tbaa !65
  %10 = call i1 @llvm.is.constant.i64(i64 %9)
  br label %11

11:                                               ; preds = %6, %1
  %12 = phi i1 [ false, %1 ], [ %10, %6 ]
  %13 = select i1 %12, ptr @rb_utf8_str_new_static, ptr @rb_utf8_str_new
  %14 = load ptr, ptr %2, align 8, !tbaa !57
  %15 = getelementptr inbounds nuw %struct.FBufferStruct, ptr %14, i32 0, i32 4
  %16 = load ptr, ptr %15, align 8, !tbaa !63
  %17 = load ptr, ptr %2, align 8, !tbaa !57
  %18 = getelementptr inbounds nuw %struct.FBufferStruct, ptr %17, i32 0, i32 2
  %19 = load i64, ptr %18, align 8, !tbaa !65
  %20 = call i64 %13(ptr noundef %16, i64 noundef %19)
  %21 = call i64 @rb_io_write(i64 noundef %5, i64 noundef %20)
  %22 = load ptr, ptr %2, align 8, !tbaa !57
  call void @fbuffer_clear(ptr noundef %22)
  ret void
}

; Function Attrs: nounwind sspstrong uwtable
define internal i64 @fbuffer_finalize(ptr noundef %0) #0 {
  %2 = alloca i64, align 8
  %3 = alloca ptr, align 8
  %4 = alloca i64, align 8
  store ptr %0, ptr %3, align 8, !tbaa !57
  %5 = load ptr, ptr %3, align 8, !tbaa !57
  %6 = getelementptr inbounds nuw %struct.FBufferStruct, ptr %5, i32 0, i32 5
  %7 = load i64, ptr %6, align 8, !tbaa !34
  %8 = icmp ne i64 %7, 0
  br i1 %8, label %9, label %19

9:                                                ; preds = %1
  %10 = load ptr, ptr %3, align 8, !tbaa !57
  call void @fbuffer_flush(ptr noundef %10)
  %11 = load ptr, ptr %3, align 8, !tbaa !57
  call void @fbuffer_free(ptr noundef %11)
  %12 = load ptr, ptr %3, align 8, !tbaa !57
  %13 = getelementptr inbounds nuw %struct.FBufferStruct, ptr %12, i32 0, i32 5
  %14 = load i64, ptr %13, align 8, !tbaa !34
  %15 = call i64 @rb_io_flush(i64 noundef %14)
  %16 = load ptr, ptr %3, align 8, !tbaa !57
  %17 = getelementptr inbounds nuw %struct.FBufferStruct, ptr %16, i32 0, i32 5
  %18 = load i64, ptr %17, align 8, !tbaa !34
  store i64 %18, ptr %2, align 8
  br label %37

19:                                               ; preds = %1
  call void @llvm.lifetime.start.p0(i64 8, ptr %4) #27
  br i1 false, label %20, label %25

20:                                               ; preds = %19
  %21 = load ptr, ptr %3, align 8, !tbaa !57
  %22 = getelementptr inbounds nuw %struct.FBufferStruct, ptr %21, i32 0, i32 2
  %23 = load i64, ptr %22, align 8, !tbaa !65
  %24 = call i1 @llvm.is.constant.i64(i64 %23)
  br label %25

25:                                               ; preds = %20, %19
  %26 = phi i1 [ false, %19 ], [ %24, %20 ]
  %27 = select i1 %26, ptr @rb_utf8_str_new_static, ptr @rb_utf8_str_new
  %28 = load ptr, ptr %3, align 8, !tbaa !57
  %29 = getelementptr inbounds nuw %struct.FBufferStruct, ptr %28, i32 0, i32 4
  %30 = load ptr, ptr %29, align 8, !tbaa !63
  %31 = load ptr, ptr %3, align 8, !tbaa !57
  %32 = getelementptr inbounds nuw %struct.FBufferStruct, ptr %31, i32 0, i32 2
  %33 = load i64, ptr %32, align 8, !tbaa !65
  %34 = call i64 %27(ptr noundef %30, i64 noundef %33)
  store i64 %34, ptr %4, align 8, !tbaa !6
  %35 = load ptr, ptr %3, align 8, !tbaa !57
  call void @fbuffer_free(ptr noundef %35)
  %36 = load i64, ptr %4, align 8, !tbaa !6
  store i64 %36, ptr %2, align 8
  call void @llvm.lifetime.end.p0(i64 8, ptr %4) #27
  br label %37

37:                                               ; preds = %25, %9
  %38 = load i64, ptr %2, align 8
  ret i64 %38
}

; Function Attrs: nounwind sspstrong uwtable
define internal void @fbuffer_stack_init(ptr noundef %0, i64 noundef %1, ptr noundef %2, i64 noundef %3) #0 {
  %5 = alloca ptr, align 8
  %6 = alloca i64, align 8
  %7 = alloca ptr, align 8
  %8 = alloca i64, align 8
  store ptr %0, ptr %5, align 8, !tbaa !57
  store i64 %1, ptr %6, align 8, !tbaa !6
  store ptr %2, ptr %7, align 8, !tbaa !56
  store i64 %3, ptr %8, align 8, !tbaa !6
  %9 = load i64, ptr %6, align 8, !tbaa !6
  %10 = icmp ugt i64 %9, 0
  br i1 %10, label %11, label %13

11:                                               ; preds = %4
  %12 = load i64, ptr %6, align 8, !tbaa !6
  br label %14

13:                                               ; preds = %4
  br label %14

14:                                               ; preds = %13, %11
  %15 = phi i64 [ %12, %11 ], [ 1024, %13 ]
  %16 = load ptr, ptr %5, align 8, !tbaa !57
  %17 = getelementptr inbounds nuw %struct.FBufferStruct, ptr %16, i32 0, i32 1
  store i64 %15, ptr %17, align 8, !tbaa !61
  %18 = load ptr, ptr %7, align 8, !tbaa !56
  %19 = icmp ne ptr %18, null
  br i1 %19, label %20, label %29

20:                                               ; preds = %14
  %21 = load ptr, ptr %5, align 8, !tbaa !57
  %22 = getelementptr inbounds nuw %struct.FBufferStruct, ptr %21, i32 0, i32 0
  store i32 1, ptr %22, align 8, !tbaa !62
  %23 = load ptr, ptr %7, align 8, !tbaa !56
  %24 = load ptr, ptr %5, align 8, !tbaa !57
  %25 = getelementptr inbounds nuw %struct.FBufferStruct, ptr %24, i32 0, i32 4
  store ptr %23, ptr %25, align 8, !tbaa !63
  %26 = load i64, ptr %8, align 8, !tbaa !6
  %27 = load ptr, ptr %5, align 8, !tbaa !57
  %28 = getelementptr inbounds nuw %struct.FBufferStruct, ptr %27, i32 0, i32 3
  store i64 %26, ptr %28, align 8, !tbaa !64
  br label %29

29:                                               ; preds = %20, %14
  ret void
}

; Function Attrs: inlinehint nounwind sspstrong willreturn memory(none) uwtable
define internal zeroext i1 @RB_TEST(i64 noundef %0) #6 {
  %2 = alloca i64, align 8
  store i64 %0, ptr %2, align 8, !tbaa !6
  %3 = load i64, ptr %2, align 8, !tbaa !6
  %4 = and i64 %3, -5
  %5 = icmp ne i64 %4, 0
  ret i1 %5
}

; Function Attrs: nounwind sspstrong uwtable
define internal i64 @cState_partial_generate(i64 noundef %0, i64 noundef %1, ptr noundef %2, i64 noundef %3) #0 {
  %5 = alloca i64, align 8
  %6 = alloca i64, align 8
  %7 = alloca ptr, align 8
  %8 = alloca i64, align 8
  %9 = alloca ptr, align 8
  %10 = alloca [512 x i8], align 16
  %11 = alloca %struct.FBufferStruct, align 8
  %12 = alloca %struct.generate_json_data, align 8
  store i64 %0, ptr %5, align 8, !tbaa !6
  store i64 %1, ptr %6, align 8, !tbaa !6
  store ptr %2, ptr %7, align 8, !tbaa !48
  store i64 %3, ptr %8, align 8, !tbaa !6
  call void @llvm.lifetime.start.p0(i64 8, ptr %9) #27
  %13 = load i64, ptr %5, align 8, !tbaa !6
  %14 = call ptr @rb_check_typeddata(i64 noundef %13, ptr noundef @JSON_Generator_State_type)
  store ptr %14, ptr %9, align 8, !tbaa !12
  call void @llvm.lifetime.start.p0(i64 512, ptr %10) #27
  call void @llvm.lifetime.start.p0(i64 48, ptr %11) #27
  call void @llvm.memset.p0.i64(ptr align 8 %11, i8 0, i64 48, i1 false)
  %15 = getelementptr inbounds nuw %struct.FBufferStruct, ptr %11, i32 0, i32 5
  %16 = load i64, ptr %8, align 8, !tbaa !6
  %17 = call zeroext i1 @RB_TEST(i64 noundef %16) #28
  br i1 %17, label %18, label %20

18:                                               ; preds = %4
  %19 = load i64, ptr %8, align 8, !tbaa !6
  br label %21

20:                                               ; preds = %4
  br label %21

21:                                               ; preds = %20, %18
  %22 = phi i64 [ %19, %18 ], [ 0, %20 ]
  store i64 %22, ptr %15, align 8, !tbaa !34
  %23 = load ptr, ptr %9, align 8, !tbaa !12
  %24 = getelementptr inbounds nuw %struct.JSON_Generator_StateStruct, ptr %23, i32 0, i32 8
  %25 = load i64, ptr %24, align 8, !tbaa !33
  %26 = getelementptr inbounds [512 x i8], ptr %10, i64 0, i64 0
  call void @fbuffer_stack_init(ptr noundef %11, i64 noundef %25, ptr noundef %26, i64 noundef 512)
  call void @llvm.lifetime.start.p0(i64 40, ptr %12) #27
  %27 = getelementptr inbounds nuw %struct.generate_json_data, ptr %12, i32 0, i32 0
  store ptr %11, ptr %27, align 8, !tbaa !37
  %28 = getelementptr inbounds nuw %struct.generate_json_data, ptr %12, i32 0, i32 1
  %29 = load i64, ptr %5, align 8, !tbaa !6
  store i64 %29, ptr %28, align 8, !tbaa !40
  %30 = getelementptr inbounds nuw %struct.generate_json_data, ptr %12, i32 0, i32 2
  %31 = load ptr, ptr %9, align 8, !tbaa !12
  store ptr %31, ptr %30, align 8, !tbaa !41
  %32 = getelementptr inbounds nuw %struct.generate_json_data, ptr %12, i32 0, i32 3
  %33 = load i64, ptr %6, align 8, !tbaa !6
  store i64 %33, ptr %32, align 8, !tbaa !42
  %34 = getelementptr inbounds nuw %struct.generate_json_data, ptr %12, i32 0, i32 4
  %35 = load ptr, ptr %7, align 8, !tbaa !48
  store ptr %35, ptr %34, align 8, !tbaa !43
  %36 = ptrtoint ptr %12 to i64
  %37 = ptrtoint ptr %12 to i64
  %38 = call i64 @rb_rescue(ptr noundef @generate_json_try, i64 noundef %36, ptr noundef @generate_json_rescue, i64 noundef %37)
  %39 = call i64 @fbuffer_finalize(ptr noundef %11)
  call void @llvm.lifetime.end.p0(i64 40, ptr %12) #27
  call void @llvm.lifetime.end.p0(i64 48, ptr %11) #27
  call void @llvm.lifetime.end.p0(i64 512, ptr %10) #27
  call void @llvm.lifetime.end.p0(i64 8, ptr %9) #27
  ret i64 %39
}