; Function Attrs: nounwind sspstrong uwtable
define internal fastcc i64 @cState_partial_generate(i64 noundef %0, i64 noundef %1, ptr noundef %2, i64 noundef %3) unnamed_addr #0 {
  %5 = alloca [512 x i8], align 16
  %6 = alloca %struct.FBufferStruct, align 8
  %7 = alloca %struct.generate_json_data, align 8
  %8 = tail call ptr @rb_check_typeddata(i64 noundef %0, ptr noundef nonnull @JSON_Generator_State_type) #22
  call void @llvm.lifetime.start.p0(i64 512, ptr nonnull %5) #22
  call void @llvm.lifetime.start.p0(i64 48, ptr nonnull %6) #22
  call void @llvm.memset.p0.i64(ptr noundef nonnull align 8 dereferenceable(48) %6, i8 0, i64 24, i1 false)
  %9 = getelementptr inbounds nuw i8, ptr %6, i64 40
  %10 = and i64 %3, -5
  %.not = icmp eq i64 %10, 0
  %11 = select i1 %.not, i64 0, i64 %3
  store i64 %11, ptr %9, align 8, !tbaa !41
  %12 = getelementptr inbounds nuw i8, ptr %8, i64 64
  %13 = load i64, ptr %12, align 8, !tbaa !21
  %.not.i = icmp eq i64 %13, 0
  %14 = select i1 %.not.i, i64 1024, i64 %13
  %15 = getelementptr inbounds nuw i8, ptr %6, i64 8
  store i64 %14, ptr %15, align 8, !tbaa !44
  store i32 1, ptr %6, align 8, !tbaa !45
  %16 = getelementptr inbounds nuw i8, ptr %6, i64 32
  store ptr %5, ptr %16, align 8, !tbaa !46
  %17 = getelementptr inbounds nuw i8, ptr %6, i64 24
  store i64 512, ptr %17, align 8, !tbaa !47
  call void @llvm.lifetime.start.p0(i64 40, ptr nonnull %7) #22
  store ptr %6, ptr %7, align 8, !tbaa !48
  %18 = getelementptr inbounds nuw i8, ptr %7, i64 8
  store i64 %0, ptr %18, align 8, !tbaa !52
  %19 = getelementptr inbounds nuw i8, ptr %7, i64 16
  store ptr %8, ptr %19, align 8, !tbaa !53
  %20 = getelementptr inbounds nuw i8, ptr %7, i64 24
  store i64 %1, ptr %20, align 8, !tbaa !54
  %21 = getelementptr inbounds nuw i8, ptr %7, i64 32
  store ptr %2, ptr %21, align 8, !tbaa !55
  %22 = ptrtoint ptr %7 to i64
  %23 = call i64 @rb_rescue(ptr noundef nonnull @generate_json_try, i64 noundef %22, ptr noundef nonnull @generate_json_rescue, i64 noundef %22) #22
  %24 = load i64, ptr %9, align 8, !tbaa !41
  %.not.i7 = icmp eq i64 %24, 0
  %25 = load ptr, ptr %16, align 8, !tbaa !46
  %26 = getelementptr inbounds nuw i8, ptr %6, i64 16
  %27 = load i64, ptr %26, align 8, !tbaa !56
  %28 = call i64 @rb_utf8_str_new(ptr noundef %25, i64 noundef %27) #22
  br i1 %.not.i7, label %38, label %29

29:                                               ; preds = %4
  %30 = call i64 @rb_io_write(i64 noundef %24, i64 noundef %28) #22
  store i64 0, ptr %26, align 8, !tbaa !56
  %31 = load ptr, ptr %16, align 8, !tbaa !46
  %.not.i.i = icmp ne ptr %31, null
  %32 = load i32, ptr %6, align 8
  %33 = icmp eq i32 %32, 0
  %or.cond = select i1 %.not.i.i, i1 %33, i1 false
  br i1 %or.cond, label %34, label %fbuffer_free.exit.i

34:                                               ; preds = %29
  call void @ruby_xfree(ptr noundef nonnull %31) #22
  br label %fbuffer_free.exit.i

fbuffer_free.exit.i:                              ; preds = %34, %29
  %35 = load i64, ptr %9, align 8, !tbaa !41
  %36 = call i64 @rb_io_flush(i64 noundef %35) #22
  %37 = load i64, ptr %9, align 8, !tbaa !41
  br label %fbuffer_finalize.exit

38:                                               ; preds = %4
  %39 = load ptr, ptr %16, align 8, !tbaa !46
  %.not.i9.i = icmp ne ptr %39, null
  %40 = load i32, ptr %6, align 8
  %41 = icmp eq i32 %40, 0
  %or.cond10 = select i1 %.not.i9.i, i1 %41, i1 false
  br i1 %or.cond10, label %42, label %fbuffer_finalize.exit

42:                                               ; preds = %38
  call void @ruby_xfree(ptr noundef nonnull %39) #22
  br label %fbuffer_finalize.exit

fbuffer_finalize.exit:                            ; preds = %fbuffer_free.exit.i, %38, %42
  %.0.i = phi i64 [ %37, %fbuffer_free.exit.i ], [ %28, %38 ], [ %28, %42 ]
  call void @llvm.lifetime.end.p0(i64 40, ptr nonnull %7) #22
  call void @llvm.lifetime.end.p0(i64 48, ptr nonnull %6) #22
  call void @llvm.lifetime.end.p0(i64 512, ptr nonnull %5) #22
  ret i64 %.0.i
}